; ModuleID = '21/1087.c'
source_filename = "21/1087.c"
target datalayout = "e-m:e-p270:32:32-p271:32:32-p272:64:64-i64:64-f80:128-n8:16:32:64-S128"
target triple = "x86_64-pc-linux-gnu"

@.str = private unnamed_addr constant [3 x i8] c"%d\00", align 1
@.str.1 = private unnamed_addr constant [6 x i8] c"%d,%d\00", align 1

; Function Attrs: noinline nounwind uwtable
define dso_local i32 @main() #0 {
  %1 = alloca i32, align 4
  %2 = alloca i32, align 4
  %3 = alloca i32, align 4
  %4 = alloca i32, align 4
  %5 = alloca i32, align 4
  %6 = alloca i32, align 4
  %7 = alloca i32, align 4
  store i32 0, i32* %1, align 4
  store i32 -1, i32* %5, align 4
  store i32 100000, i32* %6, align 4
  store i32 0, i32* %7, align 4
  %8 = call i32 (i8*, ...) @__isoc99_scanf(i8* getelementptr inbounds ([3 x i8], [3 x i8]* @.str, i64 0, i64 0), i32* %2)
  store i32 0, i32* %4, align 4
  br label %9

9:                                                ; preds = %30, %0
  %10 = load i32, i32* %4, align 4
  %11 = load i32, i32* %2, align 4
  %12 = icmp slt i32 %10, %11
  br i1 %12, label %13, label %33

13:                                               ; preds = %9
  %14 = call i32 (i8*, ...) @__isoc99_scanf(i8* getelementptr inbounds ([3 x i8], [3 x i8]* @.str, i64 0, i64 0), i32* %3)
  %15 = load i32, i32* %7, align 4
  %16 = load i32, i32* %3, align 4
  %17 = add nsw i32 %15, %16
  store i32 %17, i32* %7, align 4
  %18 = load i32, i32* %3, align 4
  %19 = load i32, i32* %5, align 4
  %20 = icmp sgt i32 %18, %19
  br i1 %20, label %21, label %23

21:                                               ; preds = %13
  %22 = load i32, i32* %3, align 4
  store i32 %22, i32* %5, align 4
  br label %23

23:                                               ; preds = %21, %13
  %24 = load i32, i32* %3, align 4
  %25 = load i32, i32* %6, align 4
  %26 = icmp slt i32 %24, %25
  br i1 %26, label %27, label %29

27:                                               ; preds = %23
  %28 = load i32, i32* %3, align 4
  store i32 %28, i32* %6, align 4
  br label %29

29:                                               ; preds = %27, %23
  br label %30

30:                                               ; preds = %29
  %31 = load i32, i32* %4, align 4
  %32 = add nsw i32 %31, 1
  store i32 %32, i32* %4, align 4
  br label %9

33:                                               ; preds = %9
  %34 = load i32, i32* %5, align 4
  %35 = load i32, i32* %2, align 4
  %36 = mul nsw i32 %34, %35
  %37 = load i32, i32* %7, align 4
  %38 = sub nsw i32 %36, %37
  %39 = load i32, i32* %7, align 4
  %40 = load i32, i32* %6, align 4
  %41 = load i32, i32* %2, align 4
  %42 = mul nsw i32 %40, %41
  %43 = sub nsw i32 %39, %42
  %44 = icmp eq i32 %38, %43
  br i1 %44, label %45, label %49

45:                                               ; preds = %33
  %46 = load i32, i32* %6, align 4
  %47 = load i32, i32* %5, align 4
  %48 = call i32 (i8*, ...) @printf(i8* getelementptr inbounds ([6 x i8], [6 x i8]* @.str.1, i64 0, i64 0), i32 %46, i32 %47)
  br label %68

49:                                               ; preds = %33
  %50 = load i32, i32* %5, align 4
  %51 = load i32, i32* %2, align 4
  %52 = mul nsw i32 %50, %51
  %53 = load i32, i32* %7, align 4
  %54 = sub nsw i32 %52, %53
  %55 = load i32, i32* %7, align 4
  %56 = load i32, i32* %6, align 4
  %57 = load i32, i32* %2, align 4
  %58 = mul nsw i32 %56, %57
  %59 = sub nsw i32 %55, %58
  %60 = icmp sgt i32 %54, %59
  br i1 %60, label %61, label %64

61:                                               ; preds = %49
  %62 = load i32, i32* %5, align 4
  %63 = call i32 (i8*, ...) @printf(i8* getelementptr inbounds ([3 x i8], [3 x i8]* @.str, i64 0, i64 0), i32 %62)
  br label %67

64:                                               ; preds = %49
  %65 = load i32, i32* %6, align 4
  %66 = call i32 (i8*, ...) @printf(i8* getelementptr inbounds ([3 x i8], [3 x i8]* @.str, i64 0, i64 0), i32 %65)
  br label %67

67:                                               ; preds = %64, %61
  br label %68

68:                                               ; preds = %67, %45
  %69 = load i32, i32* %1, align 4
  ret i32 %69
}

declare dso_local i32 @__isoc99_scanf(i8*, ...) #1

declare dso_local i32 @printf(i8*, ...) #1


!llvm.module.flags = !{!0}
!llvm.ident = !{!1}

!0 = !{i32 1, !"wchar_size", i32 4}
!1 = !{!"clang version 10.0.0-4ubuntu1 "}
